; ModuleID = 'source-C-CXX/56/2713.c'
source_filename = "source-C-CXX/56/2713.c"
target datalayout = "e-m:e-p270:32:32-p271:32:32-p272:64:64-i64:64-f80:128-n8:16:32:64-S128"
target triple = "x86_64-pc-linux-gnu"

@.str = private unnamed_addr constant [3 x i8] c"%d\00", align 1

; Function Attrs: nounwind sspstrong uwtable
define dso_local void @main() local_unnamed_addr #0 {
  %1 = alloca i32, align 4
  %2 = alloca [100 x i8], align 16
  %3 = bitcast i32* %1 to i8*
  call void @llvm.lifetime.start.p0i8(i64 4, i8* nonnull %3) #6
  %4 = getelementptr inbounds [100 x i8], [100 x i8]* %2, i64 0, i64 0
  call void @llvm.lifetime.start.p0i8(i64 100, i8* nonnull %4) #6
  %5 = call i32 (i8*, ...) @__isoc99_scanf(i8* getelementptr inbounds ([3 x i8], [3 x i8]* @.str, i64 0, i64 0), i32* nonnull %1)
  %6 = load i32, i32* %1, align 4, !tbaa !5
  %7 = icmp slt i32 %6, 0
  br i1 %7, label %61, label %8

8:                                                ; preds = %0, %56
  %9 = phi i32 [ %58, %56 ], [ 1, %0 ]
  %10 = call i32 (i8*, ...) bitcast (i32 (...)* @gets to i32 (i8*, ...)*)(i8* nonnull %4) #6
  %11 = call i64 @strlen(i8* noundef nonnull %4) #7
  %12 = trunc i64 %11 to i32
  %13 = add i32 %12, -3
  %14 = sext i32 %13 to i64
  %15 = getelementptr inbounds [100 x i8], [100 x i8]* %2, i64 0, i64 %14
  %16 = load i8, i8* %15, align 1, !tbaa !9
  %17 = icmp eq i8 %16, 105
  br i1 %17, label %18, label %43

18:                                               ; preds = %8
  %19 = shl i64 %11, 32
  %20 = add i64 %19, -8589934592
  %21 = ashr exact i64 %20, 32
  %22 = getelementptr inbounds [100 x i8], [100 x i8]* %2, i64 0, i64 %21
  %23 = load i8, i8* %22, align 1, !tbaa !9
  %24 = icmp eq i8 %23, 110
  br i1 %24, label %25, label %43

25:                                               ; preds = %18
  %26 = add i64 %19, -4294967296
  %27 = ashr exact i64 %26, 32
  %28 = getelementptr inbounds [100 x i8], [100 x i8]* %2, i64 0, i64 %27
  %29 = load i8, i8* %28, align 1, !tbaa !9
  %30 = icmp eq i8 %29, 103
  br i1 %30, label %31, label %43

31:                                               ; preds = %25
  %32 = icmp slt i32 %12, 4
  br i1 %32, label %56, label %33

33:                                               ; preds = %31
  %34 = zext i32 %13 to i64
  br label %35

35:                                               ; preds = %33, %35
  %36 = phi i64 [ 0, %33 ], [ %41, %35 ]
  %37 = getelementptr inbounds [100 x i8], [100 x i8]* %2, i64 0, i64 %36
  %38 = load i8, i8* %37, align 1, !tbaa !9
  %39 = sext i8 %38 to i32
  %40 = call i32 @putchar(i32 %39)
  %41 = add nuw nsw i64 %36, 1
  %42 = icmp eq i64 %41, %34
  br i1 %42, label %56, label %35, !llvm.loop !10

43:                                               ; preds = %25, %18, %8
  %44 = icmp slt i32 %12, 3
  br i1 %44, label %56, label %45

45:                                               ; preds = %43
  %46 = add i64 %11, 4294967294
  %47 = and i64 %46, 4294967295
  br label %48

48:                                               ; preds = %45, %48
  %49 = phi i64 [ 0, %45 ], [ %54, %48 ]
  %50 = getelementptr inbounds [100 x i8], [100 x i8]* %2, i64 0, i64 %49
  %51 = load i8, i8* %50, align 1, !tbaa !9
  %52 = sext i8 %51 to i32
  %53 = call i32 @putchar(i32 %52)
  %54 = add nuw nsw i64 %49, 1
  %55 = icmp eq i64 %54, %47
  br i1 %55, label %56, label %48, !llvm.loop !12

56:                                               ; preds = %48, %35, %43, %31
  %57 = call i32 @putchar(i32 10)
  %58 = add nuw nsw i32 %9, 1
  %59 = load i32, i32* %1, align 4, !tbaa !5
  %60 = icmp sgt i32 %9, %59
  br i1 %60, label %61, label %8, !llvm.loop !13

61:                                               ; preds = %56, %0
  call void @llvm.lifetime.end.p0i8(i64 100, i8* nonnull %4) #6
  call void @llvm.lifetime.end.p0i8(i64 4, i8* nonnull %3) #6
  ret void
}

; Function Attrs: argmemonly mustprogress nofree nosync nounwind willreturn
declare void @llvm.lifetime.start.p0i8(i64 immarg, i8* nocapture) #1

; Function Attrs: nofree nounwind
declare noundef i32 @__isoc99_scanf(i8* nocapture noundef readonly, ...) local_unnamed_addr #2

declare i32 @gets(...) local_unnamed_addr #3

; Function Attrs: argmemonly mustprogress nofree nounwind readonly willreturn
declare i64 @strlen(i8* nocapture) local_unnamed_addr #4

; Function Attrs: argmemonly mustprogress nofree nosync nounwind willreturn
declare void @llvm.lifetime.end.p0i8(i64 immarg, i8* nocapture) #1

; Function Attrs: nofree nounwind
declare noundef i32 @putchar(i32 noundef) local_unnamed_addr #5


!llvm.module.flags = !{!0, !1, !2, !3}
!llvm.ident = !{!4}

!0 = !{i32 1, !"wchar_size", i32 4}
!1 = !{i32 7, !"PIC Level", i32 2}
!2 = !{i32 7, !"PIE Level", i32 2}
!3 = !{i32 7, !"uwtable", i32 1}
!4 = !{!"clang version 13.0.0"}
!5 = !{!6, !6, i64 0}
!6 = !{!"int", !7, i64 0}
!7 = !{!"omnipotent char", !8, i64 0}
!8 = !{!"Simple C/C++ TBAA"}
!9 = !{!7, !7, i64 0}
!10 = distinct !{!10, !11}
!11 = !{!"llvm.loop.mustprogress"}
!12 = distinct !{!12, !11}
!13 = distinct !{!13, !11}
